target datalayout = "e-m:e-p270:32:32-p271:32:32-p272:64:64-i64:64-i128:128-f80:128-n8:16:32:64-S128"
target triple = "x86_64-pc-linux-gnu"

%struct.quicklist = type { ptr, ptr, i64, i64, i64, [0 x %struct.quicklistBookmark] }
%struct.quicklistBookmark = type { ptr, ptr }
%struct.quicklistNode = type { ptr, ptr, ptr, i64, i32 }

@.str.1 = private unnamed_addr constant [12 x i8] c"quicklist.c\00", align 1
@.str.5 = private unnamed_addr constant [57 x i8] c"quicklist->head->encoding != QUICKLIST_NODE_ENCODING_LZF\00", align 1
@.str.6 = private unnamed_addr constant [57 x i8] c"quicklist->tail->encoding != QUICKLIST_NODE_ENCODING_LZF\00", align 1

; Function Attrs: nounwind uwtable
define dso_local void @quicklistPush(ptr noundef %0, ptr noundef %1, i64 noundef %2, i32 noundef %3) #0 {
  %5 = alloca ptr, align 8
  %6 = alloca ptr, align 8
  %7 = alloca i64, align 8
  %8 = alloca i32, align 4
  store ptr %0, ptr %5, align 8, !tbaa !9
  store ptr %1, ptr %6, align 8, !tbaa !29
  store i64 %2, ptr %7, align 8, !tbaa !5
  store i32 %3, ptr %8, align 4, !tbaa !14
  %9 = load ptr, ptr %5, align 8, !tbaa !9
  %10 = getelementptr inbounds nuw %struct.quicklist, ptr %9, i32 0, i32 0
  %11 = load ptr, ptr %10, align 8, !tbaa !12
  %12 = icmp ne ptr %11, null
  br i1 %12, label %13, label %32

13:                                               ; preds = %4
  %14 = load ptr, ptr %5, align 8, !tbaa !9
  %15 = getelementptr inbounds nuw %struct.quicklist, ptr %14, i32 0, i32 0
  %16 = load ptr, ptr %15, align 8, !tbaa !12
  %17 = getelementptr inbounds nuw %struct.quicklistNode, ptr %16, i32 0, i32 4
  %18 = load i32, ptr %17, align 8
  %19 = lshr i32 %18, 16
  %20 = and i32 %19, 3
  %21 = icmp ne i32 %20, 2
  %22 = xor i1 %21, true
  %23 = xor i1 %22, true
  %24 = zext i1 %23 to i32
  %25 = sext i32 %24 to i64
  %26 = call i64 @llvm.expect.i64(i64 %25, i64 1)
  %27 = icmp ne i64 %26, 0
  br i1 %27, label %28, label %29

28:                                               ; preds = %13
  br label %31

29:                                               ; preds = %13
  call void @_serverAssert(ptr noundef @.str.5, ptr noundef @.str.1, i32 noundef 1670)
  call void @abort() #12
  unreachable

30:                                               ; No predecessors!
  br label %31

31:                                               ; preds = %30, %28
  br label %32

32:                                               ; preds = %31, %4
  %33 = load ptr, ptr %5, align 8, !tbaa !9
  %34 = getelementptr inbounds nuw %struct.quicklist, ptr %33, i32 0, i32 1
  %35 = load ptr, ptr %34, align 8, !tbaa !12
  %36 = icmp ne ptr %35, null
  br i1 %36, label %37, label %56

37:                                               ; preds = %32
  %38 = load ptr, ptr %5, align 8, !tbaa !9
  %39 = getelementptr inbounds nuw %struct.quicklist, ptr %38, i32 0, i32 1
  %40 = load ptr, ptr %39, align 8, !tbaa !12
  %41 = getelementptr inbounds nuw %struct.quicklistNode, ptr %40, i32 0, i32 4
  %42 = load i32, ptr %41, align 8
  %43 = lshr i32 %42, 16
  %44 = and i32 %43, 3
  %45 = icmp ne i32 %44, 2
  %46 = xor i1 %45, true
  %47 = xor i1 %46, true
  %48 = zext i1 %47 to i32
  %49 = sext i32 %48 to i64
  %50 = call i64 @llvm.expect.i64(i64 %49, i64 1)
  %51 = icmp ne i64 %50, 0
  br i1 %51, label %52, label %53

52:                                               ; preds = %37
  br label %55

53:                                               ; preds = %37
  call void @_serverAssert(ptr noundef @.str.6, ptr noundef @.str.1, i32 noundef 1672)
  call void @abort() #12
  unreachable

54:                                               ; No predecessors!
  br label %55

55:                                               ; preds = %54, %52
  br label %56

56:                                               ; preds = %55, %32
  %57 = load i32, ptr %8, align 4, !tbaa !14
  %58 = icmp eq i32 %57, 0
  br i1 %58, label %59, label %64

59:                                               ; preds = %56
  %60 = load ptr, ptr %5, align 8, !tbaa !9
  %61 = load ptr, ptr %6, align 8, !tbaa !29
  %62 = load i64, ptr %7, align 8, !tbaa !5
  %63 = call i32 @quicklistPushHead(ptr noundef %60, ptr noundef %61, i64 noundef %62)
  br label %73

64:                                               ; preds = %56
  %65 = load i32, ptr %8, align 4, !tbaa !14
  %66 = icmp eq i32 %65, -1
  br i1 %66, label %67, label %72

67:                                               ; preds = %64
  %68 = load ptr, ptr %5, align 8, !tbaa !9
  %69 = load ptr, ptr %6, align 8, !tbaa !29
  %70 = load i64, ptr %7, align 8, !tbaa !5
  %71 = call i32 @quicklistPushTail(ptr noundef %68, ptr noundef %69, i64 noundef %70)
  br label %72

72:                                               ; preds = %67, %64
  br label %73

73:                                               ; preds = %72, %59
  ret void
}