; Function Attrs: nounwind uwtable
define dso_local void @quicklistPush(ptr noundef captures(none) %0, ptr noundef %1, i64 noundef %2, i32 noundef %3) local_unnamed_addr #1 {
  %5 = load ptr, ptr %0, align 8, !tbaa !16
  %.not = icmp eq ptr %5, null
  br i1 %.not, label %11, label %6

6:                                                ; preds = %4
  %7 = getelementptr inbounds nuw i8, ptr %5, i64 32
  %8 = load i32, ptr %7, align 8
  %9 = and i32 %8, 196608
  %.not13 = icmp eq i32 %9, 131072
  br i1 %.not13, label %10, label %11, !prof !24

10:                                               ; preds = %6
  tail call void @_serverAssert(ptr noundef nonnull @.str.5, ptr noundef nonnull @.str.1, i32 noundef 1670) #23
  tail call void @abort() #24
  unreachable

11:                                               ; preds = %6, %4
  %12 = getelementptr inbounds nuw i8, ptr %0, i64 8
  %13 = load ptr, ptr %12, align 8, !tbaa !16
  %.not14 = icmp eq ptr %13, null
  br i1 %.not14, label %19, label %14

14:                                               ; preds = %11
  %15 = getelementptr inbounds nuw i8, ptr %13, i64 32
  %16 = load i32, ptr %15, align 8
  %17 = and i32 %16, 196608
  %.not15 = icmp eq i32 %17, 131072
  br i1 %.not15, label %18, label %19, !prof !24

18:                                               ; preds = %14
  tail call void @_serverAssert(ptr noundef nonnull @.str.6, ptr noundef nonnull @.str.1, i32 noundef 1672) #23
  tail call void @abort() #24
  unreachable

19:                                               ; preds = %14, %11
  switch i32 %3, label %24 [
    i32 0, label %20
    i32 -1, label %22
  ]

20:                                               ; preds = %19
  %21 = tail call i32 @quicklistPushHead(ptr noundef nonnull %0, ptr noundef %1, i64 noundef %2)
  br label %24

22:                                               ; preds = %19
  %23 = tail call i32 @quicklistPushTail(ptr noundef nonnull %0, ptr noundef %1, i64 noundef %2)
  br label %24

24:                                               ; preds = %19, %22, %20
  ret void
}